target datalayout = "e-m:e-p270:32:32-p271:32:32-p272:64:64-i64:64-i128:128-f80:128-n8:16:32:64-S128"
target triple = "x86_64-pc-linux-gnu"

@meth_mem = internal global ptr null, align 8
@.str.1 = private unnamed_addr constant [37 x i8] c"../openssl/test/helpers/ssltestlib.c\00", align 1
@.str.2 = private unnamed_addr constant [68 x i8] c"meth_mem = BIO_meth_new(BIO_TYPE_MEMPACKET_TEST, \22Mem Packet Test\22)\00", align 1
@.str.3 = private unnamed_addr constant [16 x i8] c"Mem Packet Test\00", align 1
@.str.4 = private unnamed_addr constant [51 x i8] c"BIO_meth_set_write(meth_mem, mempacket_test_write)\00", align 1
@.str.5 = private unnamed_addr constant [49 x i8] c"BIO_meth_set_read(meth_mem, mempacket_test_read)\00", align 1
@.str.6 = private unnamed_addr constant [49 x i8] c"BIO_meth_set_puts(meth_mem, mempacket_test_puts)\00", align 1
@.str.7 = private unnamed_addr constant [49 x i8] c"BIO_meth_set_gets(meth_mem, mempacket_test_gets)\00", align 1
@.str.8 = private unnamed_addr constant [49 x i8] c"BIO_meth_set_ctrl(meth_mem, mempacket_test_ctrl)\00", align 1
@.str.9 = private unnamed_addr constant [50 x i8] c"BIO_meth_set_create(meth_mem, mempacket_test_new)\00", align 1
@.str.10 = private unnamed_addr constant [52 x i8] c"BIO_meth_set_destroy(meth_mem, mempacket_test_free)\00", align 1

; Function Attrs: nounwind uwtable
define dso_local ptr @bio_s_mempacket_test() #0 {
  %1 = alloca ptr, align 8
  %2 = load ptr, ptr @meth_mem, align 8, !tbaa !4
  %3 = icmp eq ptr %2, null
  br i1 %3, label %4, label %59

4:                                                ; preds = %0
  %5 = call ptr @BIO_meth_new(i32 noundef 129, ptr noundef @.str.3)
  store ptr %5, ptr @meth_mem, align 8, !tbaa !4
  %6 = call i32 @test_ptr(ptr noundef @.str.1, i32 noundef 296, ptr noundef @.str.2, ptr noundef %5)
  %7 = icmp ne i32 %6, 0
  br i1 %7, label %8, label %57

8:                                                ; preds = %4
  %9 = load ptr, ptr @meth_mem, align 8, !tbaa !4
  %10 = call i32 @BIO_meth_set_write(ptr noundef %9, ptr noundef @mempacket_test_write)
  %11 = icmp ne i32 %10, 0
  %12 = zext i1 %11 to i32
  %13 = call i32 @test_true(ptr noundef @.str.1, i32 noundef 297, ptr noundef @.str.4, i32 noundef %12)
  %14 = icmp ne i32 %13, 0
  br i1 %14, label %15, label %57

15:                                               ; preds = %8
  %16 = load ptr, ptr @meth_mem, align 8, !tbaa !4
  %17 = call i32 @BIO_meth_set_read(ptr noundef %16, ptr noundef @mempacket_test_read)
  %18 = icmp ne i32 %17, 0
  %19 = zext i1 %18 to i32
  %20 = call i32 @test_true(ptr noundef @.str.1, i32 noundef 298, ptr noundef @.str.5, i32 noundef %19)
  %21 = icmp ne i32 %20, 0
  br i1 %21, label %22, label %57

22:                                               ; preds = %15
  %23 = load ptr, ptr @meth_mem, align 8, !tbaa !4
  %24 = call i32 @BIO_meth_set_puts(ptr noundef %23, ptr noundef @mempacket_test_puts)
  %25 = icmp ne i32 %24, 0
  %26 = zext i1 %25 to i32
  %27 = call i32 @test_true(ptr noundef @.str.1, i32 noundef 299, ptr noundef @.str.6, i32 noundef %26)
  %28 = icmp ne i32 %27, 0
  br i1 %28, label %29, label %57

29:                                               ; preds = %22
  %30 = load ptr, ptr @meth_mem, align 8, !tbaa !4
  %31 = call i32 @BIO_meth_set_gets(ptr noundef %30, ptr noundef @mempacket_test_gets)
  %32 = icmp ne i32 %31, 0
  %33 = zext i1 %32 to i32
  %34 = call i32 @test_true(ptr noundef @.str.1, i32 noundef 300, ptr noundef @.str.7, i32 noundef %33)
  %35 = icmp ne i32 %34, 0
  br i1 %35, label %36, label %57

36:                                               ; preds = %29
  %37 = load ptr, ptr @meth_mem, align 8, !tbaa !4
  %38 = call i32 @BIO_meth_set_ctrl(ptr noundef %37, ptr noundef @mempacket_test_ctrl)
  %39 = icmp ne i32 %38, 0
  %40 = zext i1 %39 to i32
  %41 = call i32 @test_true(ptr noundef @.str.1, i32 noundef 301, ptr noundef @.str.8, i32 noundef %40)
  %42 = icmp ne i32 %41, 0
  br i1 %42, label %43, label %57

43:                                               ; preds = %36
  %44 = load ptr, ptr @meth_mem, align 8, !tbaa !4
  %45 = call i32 @BIO_meth_set_create(ptr noundef %44, ptr noundef @mempacket_test_new)
  %46 = icmp ne i32 %45, 0
  %47 = zext i1 %46 to i32
  %48 = call i32 @test_true(ptr noundef @.str.1, i32 noundef 302, ptr noundef @.str.9, i32 noundef %47)
  %49 = icmp ne i32 %48, 0
  br i1 %49, label %50, label %57

50:                                               ; preds = %43
  %51 = load ptr, ptr @meth_mem, align 8, !tbaa !4
  %52 = call i32 @BIO_meth_set_destroy(ptr noundef %51, ptr noundef @mempacket_test_free)
  %53 = icmp ne i32 %52, 0
  %54 = zext i1 %53 to i32
  %55 = call i32 @test_true(ptr noundef @.str.1, i32 noundef 303, ptr noundef @.str.10, i32 noundef %54)
  %56 = icmp ne i32 %55, 0
  br i1 %56, label %58, label %57

57:                                               ; preds = %50, %43, %36, %29, %22, %15, %8, %4
  store ptr null, ptr %1, align 8
  br label %61

58:                                               ; preds = %50
  br label %59

59:                                               ; preds = %58, %0
  %60 = load ptr, ptr @meth_mem, align 8, !tbaa !4
  store ptr %60, ptr %1, align 8
  br label %61

61:                                               ; preds = %59, %57
  %62 = load ptr, ptr %1, align 8
  ret ptr %62
}